target datalayout = "e-m:e-p270:32:32-p271:32:32-p272:64:64-i64:64-i128:128-f80:128-n8:16:32:64-S128"
target triple = "x86_64-pc-linux-gnu"

%struct.ResampleContext = type { ptr, ptr, i32, i32, i32, i32, i32, i32, i32, i32, i32, i32, i32, i32, i32, double, double, i32, i32, i32, i32, %struct.anon }
%struct.anon = type { ptr, ptr, ptr }
%struct.AudioData = type { [64 x ptr], ptr, i32, i32, i32, i32, i32 }
%struct.SwrContext = type { ptr, i32, ptr, i32, i32, i32, %struct.AVChannelLayout, %struct.AVChannelLayout, %struct.AVChannelLayout, i32, i32, i32, float, float, float, float, float, i32, ptr, i32, %struct.AVChannelLayout, %struct.AVChannelLayout, %struct.AVChannelLayout, i32, i32, %struct.DitherContext, i32, i32, i32, i32, double, i32, double, double, i32, float, float, float, float, float, i64, i32, i32, i32, %struct.AudioData, %struct.AudioData, %struct.AudioData, %struct.AudioData, %struct.AudioData, %struct.AudioData, %struct.AudioData, %struct.AudioData, i32, i32, i32, i32, i64, i64, i32, double, ptr, ptr, ptr, ptr, ptr, [64 x [64 x double]], [64 x [64 x float]], ptr, ptr, ptr, ptr, [64 x [64 x i32]], [64 x [65 x i8]], ptr, ptr, ptr, ptr, ptr }
%struct.AVChannelLayout = type { i32, i32, %union.anon, ptr }
%union.anon = type { i64 }
%struct.DitherContext = type { i32, i32, float, float, i32, float, float, i32, [20 x float], [64 x [40 x float]], %struct.AudioData, %struct.AudioData, i32 }

@.str.1 = private unnamed_addr constant [30 x i8] c"Assertion %s failed at %s:%d\0A\00", align 1
@.str.3 = private unnamed_addr constant [25 x i8] c"libswresample/resample.c\00", align 1
@.str.6 = private unnamed_addr constant [10 x i8] c"a->planar\00", align 1

; Function Attrs: nounwind uwtable
define internal i32 @resample_flush(ptr noundef %0) #0 {
  %2 = alloca i32, align 4
  %3 = alloca ptr, align 8
  %4 = alloca ptr, align 8
  %5 = alloca ptr, align 8
  %6 = alloca i32, align 4
  %7 = alloca i32, align 4
  %8 = alloca i32, align 4
  %9 = alloca i32, align 4
  %10 = alloca i32, align 4
  store ptr %0, ptr %3, align 8, !tbaa !57
  call void @llvm.lifetime.start.p0(i64 8, ptr %4) #8
  %11 = load ptr, ptr %3, align 8, !tbaa !57
  %12 = getelementptr inbounds nuw %struct.SwrContext, ptr %11, i32 0, i32 63
  %13 = load ptr, ptr %12, align 8, !tbaa !59
  store ptr %13, ptr %4, align 8, !tbaa !4
  call void @llvm.lifetime.start.p0(i64 8, ptr %5) #8
  %14 = load ptr, ptr %3, align 8, !tbaa !57
  %15 = getelementptr inbounds nuw %struct.SwrContext, ptr %14, i32 0, i32 49
  store ptr %15, ptr %5, align 8, !tbaa !42
  call void @llvm.lifetime.start.p0(i64 4, ptr %6) #8
  call void @llvm.lifetime.start.p0(i64 4, ptr %7) #8
  call void @llvm.lifetime.start.p0(i64 4, ptr %8) #8
  call void @llvm.lifetime.start.p0(i64 4, ptr %9) #8
  %16 = load ptr, ptr %3, align 8, !tbaa !57
  %17 = getelementptr inbounds nuw %struct.SwrContext, ptr %16, i32 0, i32 53
  %18 = load i32, ptr %17, align 4, !tbaa !66
  %19 = load ptr, ptr %4, align 8, !tbaa !4
  %20 = getelementptr inbounds nuw %struct.ResampleContext, ptr %19, i32 0, i32 2
  %21 = load i32, ptr %20, align 8, !tbaa !20
  %22 = icmp sgt i32 %18, %21
  br i1 %22, label %23, label %27

23:                                               ; preds = %1
  %24 = load ptr, ptr %4, align 8, !tbaa !4
  %25 = getelementptr inbounds nuw %struct.ResampleContext, ptr %24, i32 0, i32 2
  %26 = load i32, ptr %25, align 8, !tbaa !20
  br label %31

27:                                               ; preds = %1
  %28 = load ptr, ptr %3, align 8, !tbaa !57
  %29 = getelementptr inbounds nuw %struct.SwrContext, ptr %28, i32 0, i32 53
  %30 = load i32, ptr %29, align 4, !tbaa !66
  br label %31

31:                                               ; preds = %27, %23
  %32 = phi i32 [ %26, %23 ], [ %30, %27 ]
  %33 = add nsw i32 %32, 1
  %34 = sdiv i32 %33, 2
  store i32 %34, ptr %9, align 4, !tbaa !9
  %35 = load ptr, ptr %5, align 8, !tbaa !42
  %36 = load ptr, ptr %3, align 8, !tbaa !57
  %37 = getelementptr inbounds nuw %struct.SwrContext, ptr %36, i32 0, i32 52
  %38 = load i32, ptr %37, align 8, !tbaa !67
  %39 = load ptr, ptr %3, align 8, !tbaa !57
  %40 = getelementptr inbounds nuw %struct.SwrContext, ptr %39, i32 0, i32 53
  %41 = load i32, ptr %40, align 4, !tbaa !66
  %42 = add nsw i32 %38, %41
  %43 = load i32, ptr %9, align 4, !tbaa !9
  %44 = add nsw i32 %42, %43
  %45 = call i32 @swri_realloc_audio(ptr noundef %35, i32 noundef %44)
  store i32 %45, ptr %8, align 4, !tbaa !9
  %46 = icmp slt i32 %45, 0
  br i1 %46, label %47, label %49

47:                                               ; preds = %31
  %48 = load i32, ptr %8, align 4, !tbaa !9
  store i32 %48, ptr %2, align 4
  store i32 1, ptr %10, align 4
  br label %131

49:                                               ; preds = %31
  br label %50

50:                                               ; preds = %49
  %51 = load ptr, ptr %5, align 8, !tbaa !42
  %52 = getelementptr inbounds nuw %struct.AudioData, ptr %51, i32 0, i32 5
  %53 = load i32, ptr %52, align 4, !tbaa !68
  %54 = icmp ne i32 %53, 0
  br i1 %54, label %56, label %55

55:                                               ; preds = %50
  call void (ptr, i32, ptr, ...) @av_log(ptr noundef null, i32 noundef 0, ptr noundef @.str.1, ptr noundef @.str.6, ptr noundef @.str.3, i32 noundef 445)
  call void @abort() #9
  unreachable

56:                                               ; preds = %50
  br label %57

57:                                               ; preds = %56
  br label %58

58:                                               ; preds = %57
  store i32 0, ptr %6, align 4, !tbaa !9
  br label %59

59:                                               ; preds = %122, %58
  %60 = load i32, ptr %6, align 4, !tbaa !9
  %61 = load ptr, ptr %5, align 8, !tbaa !42
  %62 = getelementptr inbounds nuw %struct.AudioData, ptr %61, i32 0, i32 2
  %63 = load i32, ptr %62, align 8, !tbaa !48
  %64 = icmp slt i32 %60, %63
  br i1 %64, label %65, label %125

65:                                               ; preds = %59
  store i32 0, ptr %7, align 4, !tbaa !9
  br label %66

66:                                               ; preds = %118, %65
  %67 = load i32, ptr %7, align 4, !tbaa !9
  %68 = load i32, ptr %9, align 4, !tbaa !9
  %69 = icmp slt i32 %67, %68
  br i1 %69, label %70, label %121

70:                                               ; preds = %66
  %71 = load ptr, ptr %5, align 8, !tbaa !42
  %72 = getelementptr inbounds nuw %struct.AudioData, ptr %71, i32 0, i32 0
  %73 = load i32, ptr %6, align 4, !tbaa !9
  %74 = sext i32 %73 to i64
  %75 = getelementptr inbounds [64 x ptr], ptr %72, i64 0, i64 %74
  %76 = load ptr, ptr %75, align 8, !tbaa !51
  %77 = load ptr, ptr %3, align 8, !tbaa !57
  %78 = getelementptr inbounds nuw %struct.SwrContext, ptr %77, i32 0, i32 52
  %79 = load i32, ptr %78, align 8, !tbaa !67
  %80 = load ptr, ptr %3, align 8, !tbaa !57
  %81 = getelementptr inbounds nuw %struct.SwrContext, ptr %80, i32 0, i32 53
  %82 = load i32, ptr %81, align 4, !tbaa !66
  %83 = add nsw i32 %79, %82
  %84 = load i32, ptr %7, align 4, !tbaa !9
  %85 = add nsw i32 %83, %84
  %86 = load ptr, ptr %5, align 8, !tbaa !42
  %87 = getelementptr inbounds nuw %struct.AudioData, ptr %86, i32 0, i32 3
  %88 = load i32, ptr %87, align 4, !tbaa !69
  %89 = mul nsw i32 %85, %88
  %90 = sext i32 %89 to i64
  %91 = getelementptr inbounds i8, ptr %76, i64 %90
  %92 = load ptr, ptr %5, align 8, !tbaa !42
  %93 = getelementptr inbounds nuw %struct.AudioData, ptr %92, i32 0, i32 0
  %94 = load i32, ptr %6, align 4, !tbaa !9
  %95 = sext i32 %94 to i64
  %96 = getelementptr inbounds [64 x ptr], ptr %93, i64 0, i64 %95
  %97 = load ptr, ptr %96, align 8, !tbaa !51
  %98 = load ptr, ptr %3, align 8, !tbaa !57
  %99 = getelementptr inbounds nuw %struct.SwrContext, ptr %98, i32 0, i32 52
  %100 = load i32, ptr %99, align 8, !tbaa !67
  %101 = load ptr, ptr %3, align 8, !tbaa !57
  %102 = getelementptr inbounds nuw %struct.SwrContext, ptr %101, i32 0, i32 53
  %103 = load i32, ptr %102, align 4, !tbaa !66
  %104 = add nsw i32 %100, %103
  %105 = load i32, ptr %7, align 4, !tbaa !9
  %106 = sub nsw i32 %104, %105
  %107 = sub nsw i32 %106, 1
  %108 = load ptr, ptr %5, align 8, !tbaa !42
  %109 = getelementptr inbounds nuw %struct.AudioData, ptr %108, i32 0, i32 3
  %110 = load i32, ptr %109, align 4, !tbaa !69
  %111 = mul nsw i32 %107, %110
  %112 = sext i32 %111 to i64
  %113 = getelementptr inbounds i8, ptr %97, i64 %112
  %114 = load ptr, ptr %5, align 8, !tbaa !42
  %115 = getelementptr inbounds nuw %struct.AudioData, ptr %114, i32 0, i32 3
  %116 = load i32, ptr %115, align 4, !tbaa !69
  %117 = sext i32 %116 to i64
  call void @llvm.memcpy.p0.p0.i64(ptr align 1 %91, ptr align 1 %113, i64 %117, i1 false)
  br label %118

118:                                              ; preds = %70
  %119 = load i32, ptr %7, align 4, !tbaa !9
  %120 = add nsw i32 %119, 1
  store i32 %120, ptr %7, align 4, !tbaa !9
  br label %66, !llvm.loop !70

121:                                              ; preds = %66
  br label %122

122:                                              ; preds = %121
  %123 = load i32, ptr %6, align 4, !tbaa !9
  %124 = add nsw i32 %123, 1
  store i32 %124, ptr %6, align 4, !tbaa !9
  br label %59, !llvm.loop !71

125:                                              ; preds = %59
  %126 = load i32, ptr %9, align 4, !tbaa !9
  %127 = load ptr, ptr %3, align 8, !tbaa !57
  %128 = getelementptr inbounds nuw %struct.SwrContext, ptr %127, i32 0, i32 53
  %129 = load i32, ptr %128, align 4, !tbaa !66
  %130 = add nsw i32 %129, %126
  store i32 %130, ptr %128, align 4, !tbaa !66
  store i32 0, ptr %2, align 4
  store i32 1, ptr %10, align 4
  br label %131

131:                                              ; preds = %125, %47
  call void @llvm.lifetime.end.p0(i64 4, ptr %9) #8
  call void @llvm.lifetime.end.p0(i64 4, ptr %8) #8
  call void @llvm.lifetime.end.p0(i64 4, ptr %7) #8
  call void @llvm.lifetime.end.p0(i64 4, ptr %6) #8
  call void @llvm.lifetime.end.p0(i64 8, ptr %5) #8
  call void @llvm.lifetime.end.p0(i64 8, ptr %4) #8
  %132 = load i32, ptr %2, align 4
  ret i32 %132
}