; Function Attrs: nounwind uwtable
define internal range(i32 -2147483648, 1) i32 @resample_flush(ptr noundef %0) #0 {
  %2 = getelementptr inbounds nuw i8, ptr %0, i64 16216
  %3 = load ptr, ptr %2, align 8, !tbaa !45
  %4 = getelementptr inbounds nuw i8, ptr %0, i64 14512
  %5 = getelementptr inbounds nuw i8, ptr %0, i64 16148
  %6 = load i32, ptr %5, align 4, !tbaa !54
  %7 = getelementptr inbounds nuw i8, ptr %3, i64 16
  %8 = load i32, ptr %7, align 8, !tbaa !19
  %. = tail call i32 @llvm.smin.i32(i32 %6, i32 %8)
  %9 = add nsw i32 %., 1
  %10 = sdiv i32 %9, 2
  %11 = getelementptr inbounds nuw i8, ptr %0, i64 16144
  %12 = load i32, ptr %11, align 8, !tbaa !55
  %13 = add nsw i32 %12, %6
  %14 = add nsw i32 %13, %10
  %15 = tail call i32 @swri_realloc_audio(ptr noundef nonnull %4, i32 noundef %14) #9
  %16 = icmp slt i32 %15, 0
  br i1 %16, label %49, label %17

17:                                               ; preds = %1
  %18 = getelementptr inbounds nuw i8, ptr %0, i64 15044
  %19 = load i32, ptr %18, align 4, !tbaa !56
  %.not = icmp eq i32 %19, 0
  br i1 %.not, label %46, label %.preheader38

.preheader38:                                     ; preds = %17
  %20 = getelementptr inbounds nuw i8, ptr %0, i64 15032
  %21 = load i32, ptr %20, align 8, !tbaa !38
  %22 = icmp sgt i32 %21, 0
  br i1 %22, label %.preheader.lr.ph, label %._crit_edge41

.preheader.lr.ph:                                 ; preds = %.preheader38
  %23 = icmp sgt i32 %., 0
  %24 = getelementptr inbounds nuw i8, ptr %0, i64 15036
  br i1 %23, label %.preheader.us.preheader, label %._crit_edge41

.preheader.us.preheader:                          ; preds = %.preheader.lr.ph
  %smax = tail call i32 @llvm.smax.i32(i32 %10, i32 1)
  br label %.preheader.us

.preheader.us:                                    ; preds = %.preheader.us.preheader, %._crit_edge.us
  %indvars.iv = phi i64 [ 0, %.preheader.us.preheader ], [ %indvars.iv.next, %._crit_edge.us ]
  %25 = getelementptr inbounds nuw [64 x ptr], ptr %4, i64 0, i64 %indvars.iv
  br label %26

26:                                               ; preds = %.preheader.us, %26
  %.03439.us = phi i32 [ 0, %.preheader.us ], [ %42, %26 ]
  %27 = load ptr, ptr %25, align 8, !tbaa !41
  %28 = load i32, ptr %11, align 8, !tbaa !55
  %29 = load i32, ptr %5, align 4, !tbaa !54
  %30 = add nsw i32 %29, %28
  %31 = add nsw i32 %30, %.03439.us
  %32 = load i32, ptr %24, align 4, !tbaa !57
  %33 = mul nsw i32 %31, %32
  %34 = sext i32 %33 to i64
  %35 = getelementptr inbounds i8, ptr %27, i64 %34
  %36 = xor i32 %.03439.us, -1
  %37 = add i32 %30, %36
  %38 = mul nsw i32 %37, %32
  %39 = sext i32 %38 to i64
  %40 = getelementptr inbounds i8, ptr %27, i64 %39
  %41 = sext i32 %32 to i64
  tail call void @llvm.memcpy.p0.p0.i64(ptr align 1 %35, ptr align 1 %40, i64 %41, i1 false)
  %42 = add nuw nsw i32 %.03439.us, 1
  %exitcond.not = icmp eq i32 %42, %smax
  br i1 %exitcond.not, label %._crit_edge.us, label %26, !llvm.loop !58

._crit_edge.us:                                   ; preds = %26
  %indvars.iv.next = add nuw nsw i64 %indvars.iv, 1
  %43 = load i32, ptr %20, align 8, !tbaa !38
  %44 = sext i32 %43 to i64
  %45 = icmp slt i64 %indvars.iv.next, %44
  br i1 %45, label %.preheader.us, label %._crit_edge41, !llvm.loop !59

46:                                               ; preds = %17
  tail call void (ptr, i32, ptr, ...) @av_log(ptr noundef null, i32 noundef 0, ptr noundef nonnull @.str.1, ptr noundef nonnull @.str.6, ptr noundef nonnull @.str.3, i32 noundef 445) #9
  tail call void @abort() #10
  unreachable

._crit_edge41:                                    ; preds = %._crit_edge.us, %.preheader.lr.ph, %.preheader38
  %47 = load i32, ptr %5, align 4, !tbaa !54
  %48 = add nsw i32 %47, %10
  store i32 %48, ptr %5, align 4, !tbaa !54
  br label %49

49:                                               ; preds = %1, %._crit_edge41
  %.0 = phi i32 [ 0, %._crit_edge41 ], [ %15, %1 ]
  ret i32 %.0
}